target datalayout = "e-m:e-p270:32:32-p271:32:32-p272:64:64-i64:64-i128:128-f80:128-n8:16:32:64-S128"
target triple = "x86_64-pc-linux-gnu"

%struct.LOCKTAG = type { i32, i32, i32, i16, i8, i8 }

@MyDatabaseId = external global i32, align 4

; Function Attrs: nounwind uwtable
define dso_local void @LockDatabaseFrozenIds(i32 noundef %0) #0 {
  %2 = alloca i32, align 4
  %3 = alloca %struct.LOCKTAG, align 4
  store i32 %0, ptr %2, align 4
  call void @llvm.lifetime.start.p0(i64 16, ptr %3) #6
  %4 = load i32, ptr @MyDatabaseId, align 4
  %5 = getelementptr inbounds nuw %struct.LOCKTAG, ptr %3, i32 0, i32 0
  store i32 %4, ptr %5, align 4
  %6 = getelementptr inbounds nuw %struct.LOCKTAG, ptr %3, i32 0, i32 1
  store i32 0, ptr %6, align 4
  %7 = getelementptr inbounds nuw %struct.LOCKTAG, ptr %3, i32 0, i32 2
  store i32 0, ptr %7, align 4
  %8 = getelementptr inbounds nuw %struct.LOCKTAG, ptr %3, i32 0, i32 3
  store i16 0, ptr %8, align 4
  %9 = getelementptr inbounds nuw %struct.LOCKTAG, ptr %3, i32 0, i32 4
  store i8 2, ptr %9, align 2
  %10 = getelementptr inbounds nuw %struct.LOCKTAG, ptr %3, i32 0, i32 5
  store i8 1, ptr %10, align 1
  %11 = load i32, ptr %2, align 4
  %12 = call i32 @LockAcquire(ptr noundef %3, i32 noundef %11, i1 noundef zeroext false, i1 noundef zeroext false)
  call void @llvm.lifetime.end.p0(i64 16, ptr %3) #6
  ret void
}